target datalayout = "e-m:e-p270:32:32-p271:32:32-p272:64:64-i64:64-i128:128-f80:128-n8:16:32:64-S128"
target triple = "x86_64-pc-linux-gnu"

%struct.Curl_cwriter = type { ptr, ptr, ptr, i32 }

@.str.22 = private unnamed_addr constant [78 x i8] c"Unrecognized content encoding type. libcurl understands %s content encodings.\00", align 1

; Function Attrs: nounwind uwtable
define internal i32 @error_do_write(ptr noundef %0, ptr noundef %1, i32 noundef %2, ptr noundef %3, i64 noundef %4) #0 {
  %6 = alloca i32, align 4
  %7 = alloca ptr, align 8
  %8 = alloca ptr, align 8
  %9 = alloca i32, align 4
  %10 = alloca ptr, align 8
  %11 = alloca i64, align 8
  %12 = alloca [256 x i8], align 16
  store ptr %0, ptr %7, align 8, !tbaa !20
  store ptr %1, ptr %8, align 8, !tbaa !98
  store i32 %2, ptr %9, align 4, !tbaa !22
  store ptr %3, ptr %10, align 8, !tbaa !3
  store i64 %4, ptr %11, align 8, !tbaa !8
  %13 = load i32, ptr %9, align 4, !tbaa !22
  %14 = and i32 %13, 1
  %15 = icmp ne i32 %14, 0
  br i1 %15, label %16, label %19

16:                                               ; preds = %5
  %17 = load i64, ptr %11, align 8, !tbaa !8
  %18 = icmp ne i64 %17, 0
  br i1 %18, label %28, label %19

19:                                               ; preds = %16, %5
  %20 = load ptr, ptr %7, align 8, !tbaa !20
  %21 = load ptr, ptr %8, align 8, !tbaa !98
  %22 = getelementptr inbounds nuw %struct.Curl_cwriter, ptr %21, i32 0, i32 1
  %23 = load ptr, ptr %22, align 8, !tbaa !114
  %24 = load i32, ptr %9, align 4, !tbaa !22
  %25 = load ptr, ptr %10, align 8, !tbaa !3
  %26 = load i64, ptr %11, align 8, !tbaa !8
  %27 = call i32 @Curl_cwriter_write(ptr noundef %20, ptr noundef %23, i32 noundef %24, ptr noundef %25, i64 noundef %26)
  store i32 %27, ptr %6, align 4
  br label %33

28:                                               ; preds = %16
  call void @llvm.lifetime.start.p0(i64 256, ptr %12) #5
  %29 = getelementptr inbounds [256 x i8], ptr %12, i64 0, i64 0
  call void @Curl_all_content_encodings(ptr noundef %29, i64 noundef 256)
  %30 = load ptr, ptr %7, align 8, !tbaa !20
  %31 = getelementptr inbounds [256 x i8], ptr %12, i64 0, i64 0
  call void (ptr, ptr, ...) @Curl_failf(ptr noundef %30, ptr noundef @.str.22, ptr noundef %31)
  call void @llvm.lifetime.end.p0(i64 256, ptr %12) #5
  br label %32

32:                                               ; preds = %28
  store i32 61, ptr %6, align 4
  br label %33

33:                                               ; preds = %32, %19
  %34 = load i32, ptr %6, align 4
  ret i32 %34
}